; Function Attrs: mustprogress nounwind uwtable
define dso_local noundef zeroext i1 @_ZN4absl16EqualsIgnoreCaseESt17basic_string_viewIcSt11char_traitsIcEES3_(i64 %0, ptr %1, i64 %2, ptr %3) local_unnamed_addr #0 personality ptr @__gxx_personality_v0 {
  %5 = icmp eq i64 %0, %2
  br i1 %5, label %6, label %10

6:                                                ; preds = %4
  %7 = invoke noundef i32 @_ZN4absl16strings_internal10memcasecmpEPKcS2_m(ptr noundef %1, ptr noundef %3, i64 noundef %0)
          to label %8 unwind label %12

8:                                                ; preds = %6
  %9 = icmp eq i32 %7, 0
  br label %10

10:                                               ; preds = %8, %4
  %11 = phi i1 [ false, %4 ], [ %9, %8 ]
  ret i1 %11

12:                                               ; preds = %6
  %13 = landingpad { ptr, i32 }
          catch ptr null
  %14 = extractvalue { ptr, i32 } %13, 0
  tail call void @__clang_call_terminate(ptr %14) #10
  unreachable
}